; Function Attrs: mustprogress nofree nounwind willreturn memory(read, inaccessiblemem: none) uwtable
define hidden noundef zeroext i1 @_ZNK5osgeo4proj6common13UnitOfMeasure15_isEquivalentToERKS2_NS0_4util11IComparable9CriterionE(ptr noundef nonnull readonly align 8 captures(none) dereferenceable(24) %0, ptr noundef nonnull readonly align 8 captures(none) dereferenceable(24) %1, i32 noundef %2) local_unnamed_addr #12 align 2 personality ptr @__gxx_personality_v0 {
  %4 = icmp eq i32 %2, 0
  %5 = getelementptr inbounds nuw i8, ptr %0, i64 16
  %6 = load ptr, ptr %5, align 8, !tbaa !9
  br i1 %4, label %7, label %21

7:                                                ; preds = %3
  %8 = getelementptr inbounds nuw i8, ptr %1, i64 16
  %9 = load ptr, ptr %8, align 8, !tbaa !9
  %10 = getelementptr inbounds nuw i8, ptr %6, i64 8
  %11 = load i64, ptr %10, align 8, !tbaa !21
  %12 = getelementptr inbounds nuw i8, ptr %9, i64 8
  %13 = load i64, ptr %12, align 8, !tbaa !21
  %14 = icmp eq i64 %11, %13
  br i1 %14, label %15, label %_ZNK5osgeo4proj6common13UnitOfMeasureeqERKS2_.exit

15:                                               ; preds = %7
  %16 = icmp eq i64 %11, 0
  br i1 %16, label %_ZNK5osgeo4proj6common13UnitOfMeasureeqERKS2_.exit, label %17

17:                                               ; preds = %15
  %18 = load ptr, ptr %9, align 8, !tbaa !16
  %19 = load ptr, ptr %6, align 8, !tbaa !16
  %bcmp.i.i = tail call i32 @bcmp(ptr %19, ptr %18, i64 %11)
  %20 = icmp eq i32 %bcmp.i.i, 0
  br label %_ZNK5osgeo4proj6common13UnitOfMeasureeqERKS2_.exit

21:                                               ; preds = %3
  %22 = getelementptr inbounds nuw i8, ptr %6, i64 32
  %23 = load double, ptr %22, align 8, !tbaa !40
  %24 = getelementptr inbounds nuw i8, ptr %1, i64 16
  %25 = load ptr, ptr %24, align 8, !tbaa !9
  %26 = getelementptr inbounds nuw i8, ptr %25, i64 32
  %27 = load double, ptr %26, align 8, !tbaa !40
  %28 = fsub double %23, %27
  %29 = tail call double @llvm.fabs.f64(double %28)
  %30 = tail call double @llvm.fabs.f64(double %23)
  %31 = fmul double %30, 1.000000e-10
  %32 = fcmp ole double %29, %31
  br label %_ZNK5osgeo4proj6common13UnitOfMeasureeqERKS2_.exit

_ZNK5osgeo4proj6common13UnitOfMeasureeqERKS2_.exit: ; preds = %17, %15, %7, %21
  %.0 = phi i1 [ %32, %21 ], [ false, %7 ], [ %20, %17 ], [ true, %15 ]
  ret i1 %.0
}